target datalayout = "e-m:e-p270:32:32-p271:32:32-p272:64:64-i64:64-i128:128-f80:128-n8:16:32:64-S128"
target triple = "x86_64-pc-linux-gnu"

%struct.Vec_Str_t_ = type { i32, i32, ptr }

@stdin = external global ptr, align 8

; Function Attrs: inlinehint nounwind uwtable
define internal void @Vec_StrGrow(ptr noundef %0, i32 noundef %1) #2 {
  %3 = alloca ptr, align 8
  %4 = alloca i32, align 4
  store ptr %0, ptr %3, align 8, !tbaa !15
  store i32 %1, ptr %4, align 4, !tbaa !8
  %5 = load ptr, ptr %3, align 8, !tbaa !15
  %6 = getelementptr inbounds nuw %struct.Vec_Str_t_, ptr %5, i32 0, i32 0
  %7 = load i32, ptr %6, align 8, !tbaa !24
  %8 = load i32, ptr %4, align 4, !tbaa !8
  %9 = icmp sge i32 %7, %8
  br i1 %9, label %10, label %11

10:                                               ; preds = %2
  br label %36

11:                                               ; preds = %2
  %12 = load ptr, ptr %3, align 8, !tbaa !15
  %13 = getelementptr inbounds nuw %struct.Vec_Str_t_, ptr %12, i32 0, i32 2
  %14 = load ptr, ptr %13, align 8, !tbaa !22
  %15 = icmp ne ptr %14, null
  br i1 %15, label %16, label %24

16:                                               ; preds = %11
  %17 = load ptr, ptr %3, align 8, !tbaa !15
  %18 = getelementptr inbounds nuw %struct.Vec_Str_t_, ptr %17, i32 0, i32 2
  %19 = load ptr, ptr %18, align 8, !tbaa !22
  %20 = load i32, ptr %4, align 4, !tbaa !8
  %21 = sext i32 %20 to i64
  %22 = mul i64 1, %21
  %23 = call ptr @realloc(ptr noundef %19, i64 noundef %22) #13
  br label %29

24:                                               ; preds = %11
  %25 = load i32, ptr %4, align 4, !tbaa !8
  %26 = sext i32 %25 to i64
  %27 = mul i64 1, %26
  %28 = call noalias ptr @malloc(i64 noundef %27) #12
  br label %29

29:                                               ; preds = %24, %16
  %30 = phi ptr [ %23, %16 ], [ %28, %24 ]
  %31 = load ptr, ptr %3, align 8, !tbaa !15
  %32 = getelementptr inbounds nuw %struct.Vec_Str_t_, ptr %31, i32 0, i32 2
  store ptr %30, ptr %32, align 8, !tbaa !22
  %33 = load i32, ptr %4, align 4, !tbaa !8
  %34 = load ptr, ptr %3, align 8, !tbaa !15
  %35 = getelementptr inbounds nuw %struct.Vec_Str_t_, ptr %34, i32 0, i32 0
  store i32 %33, ptr %35, align 8, !tbaa !24
  br label %36

36:                                               ; preds = %29, %10
  ret void
}

; Function Attrs: inlinehint nounwind uwtable
define internal void @Vec_StrFreeP(ptr noundef %0) #2 {
  %2 = alloca ptr, align 8
  store ptr %0, ptr %2, align 8, !tbaa !46
  %3 = load ptr, ptr %2, align 8, !tbaa !46
  %4 = load ptr, ptr %3, align 8, !tbaa !15
  %5 = icmp eq ptr %4, null
  br i1 %5, label %6, label %7

6:                                                ; preds = %1
  br label %32

7:                                                ; preds = %1
  %8 = load ptr, ptr %2, align 8, !tbaa !46
  %9 = load ptr, ptr %8, align 8, !tbaa !15
  %10 = getelementptr inbounds nuw %struct.Vec_Str_t_, ptr %9, i32 0, i32 2
  %11 = load ptr, ptr %10, align 8, !tbaa !22
  %12 = icmp ne ptr %11, null
  br i1 %12, label %13, label %21

13:                                               ; preds = %7
  %14 = load ptr, ptr %2, align 8, !tbaa !46
  %15 = load ptr, ptr %14, align 8, !tbaa !15
  %16 = getelementptr inbounds nuw %struct.Vec_Str_t_, ptr %15, i32 0, i32 2
  %17 = load ptr, ptr %16, align 8, !tbaa !22
  call void @free(ptr noundef %17) #10
  %18 = load ptr, ptr %2, align 8, !tbaa !46
  %19 = load ptr, ptr %18, align 8, !tbaa !15
  %20 = getelementptr inbounds nuw %struct.Vec_Str_t_, ptr %19, i32 0, i32 2
  store ptr null, ptr %20, align 8, !tbaa !22
  br label %22

21:                                               ; preds = %7
  br label %22

22:                                               ; preds = %21, %13
  %23 = load ptr, ptr %2, align 8, !tbaa !46
  %24 = load ptr, ptr %23, align 8, !tbaa !15
  %25 = icmp ne ptr %24, null
  br i1 %25, label %26, label %30

26:                                               ; preds = %22
  %27 = load ptr, ptr %2, align 8, !tbaa !46
  %28 = load ptr, ptr %27, align 8, !tbaa !15
  call void @free(ptr noundef %28) #10
  %29 = load ptr, ptr %2, align 8, !tbaa !46
  store ptr null, ptr %29, align 8, !tbaa !15
  br label %31

30:                                               ; preds = %22
  br label %31

31:                                               ; preds = %30, %26
  br label %32

32:                                               ; preds = %31, %6
  ret void
}

; Function Attrs: inlinehint nounwind uwtable
define internal void @Vec_StrPush(ptr noundef %0, i8 noundef signext %1) #2 {
  %3 = alloca ptr, align 8
  %4 = alloca i8, align 1
  store ptr %0, ptr %3, align 8, !tbaa !15
  store i8 %1, ptr %4, align 1, !tbaa !10
  %5 = load ptr, ptr %3, align 8, !tbaa !15
  %6 = getelementptr inbounds nuw %struct.Vec_Str_t_, ptr %5, i32 0, i32 1
  %7 = load i32, ptr %6, align 4, !tbaa !20
  %8 = load ptr, ptr %3, align 8, !tbaa !15
  %9 = getelementptr inbounds nuw %struct.Vec_Str_t_, ptr %8, i32 0, i32 0
  %10 = load i32, ptr %9, align 8, !tbaa !24
  %11 = icmp eq i32 %7, %10
  br i1 %11, label %12, label %26

12:                                               ; preds = %2
  %13 = load ptr, ptr %3, align 8, !tbaa !15
  %14 = getelementptr inbounds nuw %struct.Vec_Str_t_, ptr %13, i32 0, i32 0
  %15 = load i32, ptr %14, align 8, !tbaa !24
  %16 = icmp slt i32 %15, 16
  br i1 %16, label %17, label %19

17:                                               ; preds = %12
  %18 = load ptr, ptr %3, align 8, !tbaa !15
  call void @Vec_StrGrow(ptr noundef %18, i32 noundef 16)
  br label %25

19:                                               ; preds = %12
  %20 = load ptr, ptr %3, align 8, !tbaa !15
  %21 = load ptr, ptr %3, align 8, !tbaa !15
  %22 = getelementptr inbounds nuw %struct.Vec_Str_t_, ptr %21, i32 0, i32 0
  %23 = load i32, ptr %22, align 8, !tbaa !24
  %24 = mul nsw i32 2, %23
  call void @Vec_StrGrow(ptr noundef %20, i32 noundef %24)
  br label %25

25:                                               ; preds = %19, %17
  br label %26

26:                                               ; preds = %25, %2
  %27 = load i8, ptr %4, align 1, !tbaa !10
  %28 = load ptr, ptr %3, align 8, !tbaa !15
  %29 = getelementptr inbounds nuw %struct.Vec_Str_t_, ptr %28, i32 0, i32 2
  %30 = load ptr, ptr %29, align 8, !tbaa !22
  %31 = load ptr, ptr %3, align 8, !tbaa !15
  %32 = getelementptr inbounds nuw %struct.Vec_Str_t_, ptr %31, i32 0, i32 1
  %33 = load i32, ptr %32, align 4, !tbaa !20
  %34 = add nsw i32 %33, 1
  store i32 %34, ptr %32, align 4, !tbaa !20
  %35 = sext i32 %33 to i64
  %36 = getelementptr inbounds i8, ptr %30, i64 %35
  store i8 %27, ptr %36, align 1, !tbaa !10
  ret void
}

; Function Attrs: inlinehint nounwind uwtable
define internal ptr @Vec_StrAlloc(i32 noundef %0) #2 {
  %2 = alloca i32, align 4
  %3 = alloca ptr, align 8
  store i32 %0, ptr %2, align 4, !tbaa !8
  call void @llvm.lifetime.start.p0(i64 8, ptr %3) #10
  %4 = call noalias ptr @malloc(i64 noundef 16) #12
  store ptr %4, ptr %3, align 8, !tbaa !15
  %5 = load i32, ptr %2, align 4, !tbaa !8
  %6 = icmp sgt i32 %5, 0
  br i1 %6, label %7, label %11

7:                                                ; preds = %1
  %8 = load i32, ptr %2, align 4, !tbaa !8
  %9 = icmp slt i32 %8, 16
  br i1 %9, label %10, label %11

10:                                               ; preds = %7
  store i32 16, ptr %2, align 4, !tbaa !8
  br label %11

11:                                               ; preds = %10, %7, %1
  %12 = load ptr, ptr %3, align 8, !tbaa !15
  %13 = getelementptr inbounds nuw %struct.Vec_Str_t_, ptr %12, i32 0, i32 1
  store i32 0, ptr %13, align 4, !tbaa !20
  %14 = load i32, ptr %2, align 4, !tbaa !8
  %15 = load ptr, ptr %3, align 8, !tbaa !15
  %16 = getelementptr inbounds nuw %struct.Vec_Str_t_, ptr %15, i32 0, i32 0
  store i32 %14, ptr %16, align 8, !tbaa !24
  %17 = load ptr, ptr %3, align 8, !tbaa !15
  %18 = getelementptr inbounds nuw %struct.Vec_Str_t_, ptr %17, i32 0, i32 0
  %19 = load i32, ptr %18, align 8, !tbaa !24
  %20 = icmp ne i32 %19, 0
  br i1 %20, label %21, label %28

21:                                               ; preds = %11
  %22 = load ptr, ptr %3, align 8, !tbaa !15
  %23 = getelementptr inbounds nuw %struct.Vec_Str_t_, ptr %22, i32 0, i32 0
  %24 = load i32, ptr %23, align 8, !tbaa !24
  %25 = sext i32 %24 to i64
  %26 = mul i64 1, %25
  %27 = call noalias ptr @malloc(i64 noundef %26) #12
  br label %29

28:                                               ; preds = %11
  br label %29

29:                                               ; preds = %28, %21
  %30 = phi ptr [ %27, %21 ], [ null, %28 ]
  %31 = load ptr, ptr %3, align 8, !tbaa !15
  %32 = getelementptr inbounds nuw %struct.Vec_Str_t_, ptr %31, i32 0, i32 2
  store ptr %30, ptr %32, align 8, !tbaa !22
  %33 = load ptr, ptr %3, align 8, !tbaa !15
  call void @llvm.lifetime.end.p0(i64 8, ptr %3) #10
  ret ptr %33
}

; Function Attrs: nounwind uwtable
define ptr @Wlc_StdinCollectQuery() #0 {
  %1 = alloca i32, align 4
  %2 = alloca i32, align 4
  %3 = alloca i32, align 4
  %4 = alloca ptr, align 8
  call void @llvm.lifetime.start.p0(i64 4, ptr %1) #10
  call void @llvm.lifetime.start.p0(i64 4, ptr %2) #10
  store i32 0, ptr %2, align 4, !tbaa !8
  call void @llvm.lifetime.start.p0(i64 4, ptr %3) #10
  store i32 0, ptr %3, align 4, !tbaa !8
  call void @llvm.lifetime.start.p0(i64 8, ptr %4) #10
  %5 = call ptr @Vec_StrAlloc(i32 noundef 1000)
  store ptr %5, ptr %4, align 8, !tbaa !15
  br label %6

6:                                                ; preds = %33, %0
  %7 = load ptr, ptr @stdin, align 8, !tbaa !42
  %8 = call i32 @fgetc(ptr noundef %7)
  store i32 %8, ptr %1, align 4, !tbaa !8
  %9 = icmp ne i32 %8, -1
  br i1 %9, label %10, label %34

10:                                               ; preds = %6
  %11 = load ptr, ptr %4, align 8, !tbaa !15
  %12 = load i32, ptr %1, align 4, !tbaa !8
  %13 = trunc i32 %12 to i8
  call void @Vec_StrPush(ptr noundef %11, i8 noundef signext %13)
  %14 = load i32, ptr %1, align 4, !tbaa !8
  %15 = icmp eq i32 %14, 40
  br i1 %15, label %16, label %19

16:                                               ; preds = %10
  %17 = load i32, ptr %2, align 4, !tbaa !8
  %18 = add nsw i32 %17, 1
  store i32 %18, ptr %2, align 4, !tbaa !8
  store i32 1, ptr %3, align 4, !tbaa !8
  br label %26

19:                                               ; preds = %10
  %20 = load i32, ptr %1, align 4, !tbaa !8
  %21 = icmp eq i32 %20, 41
  br i1 %21, label %22, label %25

22:                                               ; preds = %19
  %23 = load i32, ptr %2, align 4, !tbaa !8
  %24 = add nsw i32 %23, -1
  store i32 %24, ptr %2, align 4, !tbaa !8
  br label %25

25:                                               ; preds = %22, %19
  br label %26

26:                                               ; preds = %25, %16
  %27 = load i32, ptr %2, align 4, !tbaa !8
  %28 = icmp eq i32 %27, 0
  br i1 %28, label %29, label %33

29:                                               ; preds = %26
  %30 = load i32, ptr %3, align 4, !tbaa !8
  %31 = icmp ne i32 %30, 0
  br i1 %31, label %32, label %33

32:                                               ; preds = %29
  br label %34

33:                                               ; preds = %29, %26
  br label %6, !llvm.loop !45

34:                                               ; preds = %32, %6
  %35 = load i32, ptr %1, align 4, !tbaa !8
  %36 = icmp eq i32 %35, -1
  br i1 %36, label %37, label %38

37:                                               ; preds = %34
  call void @Vec_StrFreeP(ptr noundef %4)
  br label %40

38:                                               ; preds = %34
  %39 = load ptr, ptr %4, align 8, !tbaa !15
  call void @Vec_StrPush(ptr noundef %39, i8 noundef signext 0)
  br label %40

40:                                               ; preds = %38, %37
  %41 = load ptr, ptr %4, align 8, !tbaa !15
  call void @llvm.lifetime.end.p0(i64 8, ptr %4) #10
  call void @llvm.lifetime.end.p0(i64 4, ptr %3) #10
  call void @llvm.lifetime.end.p0(i64 4, ptr %2) #10
  call void @llvm.lifetime.end.p0(i64 4, ptr %1) #10
  ret ptr %41
}