; Function Attrs: nounwind uwtable
define noalias noundef ptr @Wlc_StdinCollectQuery() local_unnamed_addr #2 {
  %1 = tail call noalias dereferenceable_or_null(16) ptr @malloc(i64 noundef 16) #16
  %2 = getelementptr inbounds nuw i8, ptr %1, i64 4
  store i32 0, ptr %2, align 4, !tbaa !14
  store i32 1000, ptr %1, align 8, !tbaa !8
  %3 = tail call noalias dereferenceable_or_null(1000) ptr @malloc(i64 noundef 1000) #16
  %4 = getelementptr inbounds nuw i8, ptr %1, i64 8
  store ptr %3, ptr %4, align 8, !tbaa !13
  br label %5

5:                                                ; preds = %40, %0
  %.09 = phi i32 [ 0, %0 ], [ %.110, %40 ]
  %.0 = phi i32 [ 0, %0 ], [ %.1, %40 ]
  %6 = load ptr, ptr @stdin, align 8, !tbaa !33
  %7 = tail call i32 @fgetc(ptr noundef %6)
  %cond = icmp eq i32 %7, -1
  br i1 %cond, label %43, label %8

8:                                                ; preds = %5
  %9 = trunc i32 %7 to i8
  %10 = load i32, ptr %2, align 4, !tbaa !14
  %11 = load i32, ptr %1, align 8, !tbaa !8
  %12 = icmp eq i32 %10, %11
  br i1 %12, label %13, label %.Vec_StrGrow.exit10_crit_edge.i

.Vec_StrGrow.exit10_crit_edge.i:                  ; preds = %8
  %.pre.i = load ptr, ptr %4, align 8, !tbaa !13
  br label %Vec_StrPush.exit

13:                                               ; preds = %8
  %14 = icmp slt i32 %10, 16
  br i1 %14, label %15, label %22

15:                                               ; preds = %13
  %16 = load ptr, ptr %4, align 8, !tbaa !13
  %.not9.i.i = icmp eq ptr %16, null
  br i1 %.not9.i.i, label %19, label %17

17:                                               ; preds = %15
  %18 = tail call dereferenceable_or_null(16) ptr @realloc(ptr noundef nonnull %16, i64 noundef 16) #18
  br label %Vec_StrGrow.exit.i

19:                                               ; preds = %15
  %20 = tail call noalias dereferenceable_or_null(16) ptr @malloc(i64 noundef 16) #16
  br label %Vec_StrGrow.exit.i

Vec_StrGrow.exit.i:                               ; preds = %19, %17
  %21 = phi ptr [ %18, %17 ], [ %20, %19 ]
  store ptr %21, ptr %4, align 8, !tbaa !13
  store i32 16, ptr %1, align 8, !tbaa !8
  br label %Vec_StrPush.exit

22:                                               ; preds = %13
  %23 = shl nuw nsw i32 %10, 1
  %24 = load ptr, ptr %4, align 8, !tbaa !13
  %.not9.i9.i = icmp eq ptr %24, null
  %25 = zext nneg i32 %23 to i64
  br i1 %.not9.i9.i, label %28, label %26

26:                                               ; preds = %22
  %27 = tail call ptr @realloc(ptr noundef nonnull %24, i64 noundef %25) #18
  br label %30

28:                                               ; preds = %22
  %29 = tail call noalias ptr @malloc(i64 noundef %25) #16
  br label %30

30:                                               ; preds = %28, %26
  %31 = phi ptr [ %27, %26 ], [ %29, %28 ]
  store ptr %31, ptr %4, align 8, !tbaa !13
  store i32 %23, ptr %1, align 8, !tbaa !8
  br label %Vec_StrPush.exit

Vec_StrPush.exit:                                 ; preds = %.Vec_StrGrow.exit10_crit_edge.i, %Vec_StrGrow.exit.i, %30
  %32 = phi ptr [ %.pre.i, %.Vec_StrGrow.exit10_crit_edge.i ], [ %31, %30 ], [ %21, %Vec_StrGrow.exit.i ]
  %33 = add nsw i32 %10, 1
  store i32 %33, ptr %2, align 4, !tbaa !14
  %34 = sext i32 %10 to i64
  %35 = getelementptr inbounds i8, ptr %32, i64 %34
  store i8 %9, ptr %35, align 1, !tbaa !3
  switch i32 %7, label %40 [
    i32 40, label %36
    i32 41, label %38
  ]

36:                                               ; preds = %Vec_StrPush.exit
  %37 = add nsw i32 %.09, 1
  br label %40

38:                                               ; preds = %Vec_StrPush.exit
  %39 = add nsw i32 %.09, -1
  br label %40

40:                                               ; preds = %Vec_StrPush.exit, %38, %36
  %.110 = phi i32 [ %37, %36 ], [ %39, %38 ], [ %.09, %Vec_StrPush.exit ]
  %.1 = phi i32 [ 1, %36 ], [ %.0, %38 ], [ %.0, %Vec_StrPush.exit ]
  %41 = icmp eq i32 %.110, 0
  %42 = icmp ne i32 %.1, 0
  %or.cond = select i1 %41, i1 %42, i1 false
  br i1 %or.cond, label %45, label %5, !llvm.loop !36

43:                                               ; preds = %5
  %44 = load ptr, ptr %4, align 8, !tbaa !13
  %.not.i = icmp eq ptr %44, null
  br i1 %.not.i, label %Vec_StrFreeP.exit, label %.thread.i

.thread.i:                                        ; preds = %43
  tail call void @free(ptr noundef nonnull %44) #17
  br label %Vec_StrFreeP.exit

Vec_StrFreeP.exit:                                ; preds = %43, %.thread.i
  tail call void @free(ptr noundef nonnull %1) #17
  br label %72

45:                                               ; preds = %40
  %46 = load i32, ptr %2, align 4, !tbaa !14
  %47 = load i32, ptr %1, align 8, !tbaa !8
  %48 = icmp eq i32 %46, %47
  br i1 %48, label %49, label %.Vec_StrGrow.exit10_crit_edge.i12

.Vec_StrGrow.exit10_crit_edge.i12:                ; preds = %45
  %.pre.i14 = load ptr, ptr %4, align 8, !tbaa !13
  br label %Vec_StrPush.exit18

49:                                               ; preds = %45
  %50 = icmp slt i32 %46, 16
  br i1 %50, label %51, label %58

51:                                               ; preds = %49
  %52 = load ptr, ptr %4, align 8, !tbaa !13
  %.not9.i.i16 = icmp eq ptr %52, null
  br i1 %.not9.i.i16, label %55, label %53

53:                                               ; preds = %51
  %54 = tail call dereferenceable_or_null(16) ptr @realloc(ptr noundef nonnull %52, i64 noundef 16) #18
  br label %Vec_StrGrow.exit.i17

55:                                               ; preds = %51
  %56 = tail call noalias dereferenceable_or_null(16) ptr @malloc(i64 noundef 16) #16
  br label %Vec_StrGrow.exit.i17

Vec_StrGrow.exit.i17:                             ; preds = %55, %53
  %57 = phi ptr [ %54, %53 ], [ %56, %55 ]
  store ptr %57, ptr %4, align 8, !tbaa !13
  store i32 16, ptr %1, align 8, !tbaa !8
  br label %Vec_StrPush.exit18

58:                                               ; preds = %49
  %59 = shl nuw nsw i32 %46, 1
  %60 = load ptr, ptr %4, align 8, !tbaa !13
  %.not9.i9.i15 = icmp eq ptr %60, null
  %61 = zext nneg i32 %59 to i64
  br i1 %.not9.i9.i15, label %64, label %62

62:                                               ; preds = %58
  %63 = tail call ptr @realloc(ptr noundef nonnull %60, i64 noundef %61) #18
  br label %66

64:                                               ; preds = %58
  %65 = tail call noalias ptr @malloc(i64 noundef %61) #16
  br label %66

66:                                               ; preds = %64, %62
  %67 = phi ptr [ %63, %62 ], [ %65, %64 ]
  store ptr %67, ptr %4, align 8, !tbaa !13
  store i32 %59, ptr %1, align 8, !tbaa !8
  br label %Vec_StrPush.exit18

Vec_StrPush.exit18:                               ; preds = %.Vec_StrGrow.exit10_crit_edge.i12, %Vec_StrGrow.exit.i17, %66
  %68 = phi ptr [ %.pre.i14, %.Vec_StrGrow.exit10_crit_edge.i12 ], [ %67, %66 ], [ %57, %Vec_StrGrow.exit.i17 ]
  %69 = add nsw i32 %46, 1
  store i32 %69, ptr %2, align 4, !tbaa !14
  %70 = sext i32 %46 to i64
  %71 = getelementptr inbounds i8, ptr %68, i64 %70
  store i8 0, ptr %71, align 1, !tbaa !3
  br label %72

72:                                               ; preds = %Vec_StrPush.exit18, %Vec_StrFreeP.exit
  %.023 = phi ptr [ null, %Vec_StrFreeP.exit ], [ %1, %Vec_StrPush.exit18 ]
  ret ptr %.023
}